ARM GAS  /var/folders/px/4y3x1gx518s5xz5ng2bfdxsw0000gn/T//ccP1Fplk.s 			page 1


   1              		.syntax unified
   2              		.cpu cortex-m4
   3              		.eabi_attribute 27, 1
   4              		.eabi_attribute 28, 1
   5              		.fpu fpv4-sp-d16
   6              		.eabi_attribute 20, 1
   7              		.eabi_attribute 21, 1
   8              		.eabi_attribute 23, 3
   9              		.eabi_attribute 24, 1
  10              		.eabi_attribute 25, 1
  11              		.eabi_attribute 26, 1
  12              		.eabi_attribute 30, 1
  13              		.eabi_attribute 34, 1
  14              		.eabi_attribute 18, 4
  15              		.thumb
  16              		.syntax unified
  17              		.file	"main.c"
  18              		.text
  19              	.Ltext0:
  20              		.cfi_sections	.debug_frame
  21              		.section	.text.MX_GPIO_Init,"ax",%progbits
  22              		.align	2
  23              		.thumb
  24              		.thumb_func
  26              	MX_GPIO_Init:
  27              	.LFB127:
  28              		.file 1 "Src/main.c"
   1:Src/main.c    **** /**
   2:Src/main.c    ****   ******************************************************************************
   3:Src/main.c    ****   * File Name          : main.c
   4:Src/main.c    ****   * Description        : Main program body
   5:Src/main.c    ****   ******************************************************************************
   6:Src/main.c    ****   ** This notice applies to any and all portions of this file
   7:Src/main.c    ****   * that are not between comment pairs USER CODE BEGIN and
   8:Src/main.c    ****   * USER CODE END. Other portions of this file, whether 
   9:Src/main.c    ****   * inserted by the user or by software development tools
  10:Src/main.c    ****   * are owned by their respective copyright owners.
  11:Src/main.c    ****   *
  12:Src/main.c    ****   * COPYRIGHT(c) 2017 STMicroelectronics
  13:Src/main.c    ****   *
  14:Src/main.c    ****   * Redistribution and use in source and binary forms, with or without modification,
  15:Src/main.c    ****   * are permitted provided that the following conditions are met:
  16:Src/main.c    ****   *   1. Redistributions of source code must retain the above copyright notice,
  17:Src/main.c    ****   *      this list of conditions and the following disclaimer.
  18:Src/main.c    ****   *   2. Redistributions in binary form must reproduce the above copyright notice,
  19:Src/main.c    ****   *      this list of conditions and the following disclaimer in the documentation
  20:Src/main.c    ****   *      and/or other materials provided with the distribution.
  21:Src/main.c    ****   *   3. Neither the name of STMicroelectronics nor the names of its contributors
  22:Src/main.c    ****   *      may be used to endorse or promote products derived from this software
  23:Src/main.c    ****   *      without specific prior written permission.
  24:Src/main.c    ****   *
  25:Src/main.c    ****   * THIS SOFTWARE IS PROVIDED BY THE COPYRIGHT HOLDERS AND CONTRIBUTORS "AS IS"
  26:Src/main.c    ****   * AND ANY EXPRESS OR IMPLIED WARRANTIES, INCLUDING, BUT NOT LIMITED TO, THE
  27:Src/main.c    ****   * IMPLIED WARRANTIES OF MERCHANTABILITY AND FITNESS FOR A PARTICULAR PURPOSE ARE
  28:Src/main.c    ****   * DISCLAIMED. IN NO EVENT SHALL THE COPYRIGHT HOLDER OR CONTRIBUTORS BE LIABLE
  29:Src/main.c    ****   * FOR ANY DIRECT, INDIRECT, INCIDENTAL, SPECIAL, EXEMPLARY, OR CONSEQUENTIAL
  30:Src/main.c    ****   * DAMAGES (INCLUDING, BUT NOT LIMITED TO, PROCUREMENT OF SUBSTITUTE GOODS OR
ARM GAS  /var/folders/px/4y3x1gx518s5xz5ng2bfdxsw0000gn/T//ccP1Fplk.s 			page 2


  31:Src/main.c    ****   * SERVICES; LOSS OF USE, DATA, OR PROFITS; OR BUSINESS INTERRUPTION) HOWEVER
  32:Src/main.c    ****   * CAUSED AND ON ANY THEORY OF LIABILITY, WHETHER IN CONTRACT, STRICT LIABILITY,
  33:Src/main.c    ****   * OR TORT (INCLUDING NEGLIGENCE OR OTHERWISE) ARISING IN ANY WAY OUT OF THE USE
  34:Src/main.c    ****   * OF THIS SOFTWARE, EVEN IF ADVISED OF THE POSSIBILITY OF SUCH DAMAGE.
  35:Src/main.c    ****   *
  36:Src/main.c    ****   ******************************************************************************
  37:Src/main.c    ****   */
  38:Src/main.c    **** /* Includes ------------------------------------------------------------------*/
  39:Src/main.c    **** #include "main.h"
  40:Src/main.c    **** #include "stm32f4xx_hal.h"
  41:Src/main.c    **** 
  42:Src/main.c    **** /* USER CODE BEGIN Includes */
  43:Src/main.c    **** 
  44:Src/main.c    **** /* USER CODE END Includes */
  45:Src/main.c    **** 
  46:Src/main.c    **** /* Private variables ---------------------------------------------------------*/
  47:Src/main.c    **** 
  48:Src/main.c    **** /* USER CODE BEGIN PV */
  49:Src/main.c    **** /* Private variables ---------------------------------------------------------*/
  50:Src/main.c    **** 
  51:Src/main.c    **** /* USER CODE END PV */
  52:Src/main.c    **** 
  53:Src/main.c    **** /* Private function prototypes -----------------------------------------------*/
  54:Src/main.c    **** void SystemClock_Config(void);
  55:Src/main.c    **** static void MX_GPIO_Init(void);
  56:Src/main.c    **** static void MX_NVIC_Init(void);
  57:Src/main.c    **** 
  58:Src/main.c    **** /* USER CODE BEGIN PFP */
  59:Src/main.c    **** /* Private function prototypes -----------------------------------------------*/
  60:Src/main.c    **** 
  61:Src/main.c    **** /* USER CODE END PFP */
  62:Src/main.c    **** 
  63:Src/main.c    **** /* USER CODE BEGIN 0 */
  64:Src/main.c    **** 
  65:Src/main.c    **** /* USER CODE END 0 */
  66:Src/main.c    **** 
  67:Src/main.c    **** int main(void)
  68:Src/main.c    **** {
  69:Src/main.c    **** 
  70:Src/main.c    ****   /* USER CODE BEGIN 1 */
  71:Src/main.c    **** 
  72:Src/main.c    ****   /* USER CODE END 1 */
  73:Src/main.c    **** 
  74:Src/main.c    ****   /* MCU Configuration----------------------------------------------------------*/
  75:Src/main.c    **** 
  76:Src/main.c    ****   /* Reset of all peripherals, Initializes the Flash interface and the Systick. */
  77:Src/main.c    ****   HAL_Init();
  78:Src/main.c    **** 
  79:Src/main.c    ****   /* USER CODE BEGIN Init */
  80:Src/main.c    **** 
  81:Src/main.c    ****   /* USER CODE END Init */
  82:Src/main.c    **** 
  83:Src/main.c    ****   /* Configure the system clock */
  84:Src/main.c    ****   SystemClock_Config();
  85:Src/main.c    **** 
  86:Src/main.c    ****   /* USER CODE BEGIN SysInit */
  87:Src/main.c    **** 
ARM GAS  /var/folders/px/4y3x1gx518s5xz5ng2bfdxsw0000gn/T//ccP1Fplk.s 			page 3


  88:Src/main.c    ****   /* USER CODE END SysInit */
  89:Src/main.c    **** 
  90:Src/main.c    ****   /* Initialize all configured peripherals */
  91:Src/main.c    ****   MX_GPIO_Init();
  92:Src/main.c    **** 
  93:Src/main.c    ****   /* Initialize interrupts */
  94:Src/main.c    ****   MX_NVIC_Init();
  95:Src/main.c    **** 
  96:Src/main.c    ****   /* USER CODE BEGIN 2 */
  97:Src/main.c    **** 
  98:Src/main.c    ****   /* USER CODE END 2 */
  99:Src/main.c    **** 
 100:Src/main.c    ****   /* Infinite loop */
 101:Src/main.c    ****   /* USER CODE BEGIN WHILE */
 102:Src/main.c    ****   while (1)
 103:Src/main.c    ****   {
 104:Src/main.c    ****   /* USER CODE END WHILE */
 105:Src/main.c    ****     HAL_Delay(100);
 106:Src/main.c    ****     // HAL_GPIO_TogglePin(LD2_GPIO_Port, LD2_Pin);
 107:Src/main.c    **** 
 108:Src/main.c    ****   /* USER CODE BEGIN 3 */
 109:Src/main.c    **** 
 110:Src/main.c    ****   }
 111:Src/main.c    ****   /* USER CODE END 3 */
 112:Src/main.c    **** 
 113:Src/main.c    **** }
 114:Src/main.c    **** 
 115:Src/main.c    **** /** System Clock Configuration
 116:Src/main.c    **** */
 117:Src/main.c    **** void SystemClock_Config(void)
 118:Src/main.c    **** {
 119:Src/main.c    **** 
 120:Src/main.c    ****   RCC_OscInitTypeDef RCC_OscInitStruct;
 121:Src/main.c    ****   RCC_ClkInitTypeDef RCC_ClkInitStruct;
 122:Src/main.c    **** 
 123:Src/main.c    ****     /**Configure the main internal regulator output voltage 
 124:Src/main.c    ****     */
 125:Src/main.c    ****   __HAL_RCC_PWR_CLK_ENABLE();
 126:Src/main.c    **** 
 127:Src/main.c    ****   __HAL_PWR_VOLTAGESCALING_CONFIG(PWR_REGULATOR_VOLTAGE_SCALE2);
 128:Src/main.c    **** 
 129:Src/main.c    ****     /**Initializes the CPU, AHB and APB busses clocks 
 130:Src/main.c    ****     */
 131:Src/main.c    ****   RCC_OscInitStruct.OscillatorType = RCC_OSCILLATORTYPE_HSE;
 132:Src/main.c    ****   RCC_OscInitStruct.HSEState = RCC_HSE_ON;
 133:Src/main.c    ****   RCC_OscInitStruct.PLL.PLLState = RCC_PLL_ON;
 134:Src/main.c    ****   RCC_OscInitStruct.PLL.PLLSource = RCC_PLLSOURCE_HSE;
 135:Src/main.c    ****   RCC_OscInitStruct.PLL.PLLM = 8;
 136:Src/main.c    ****   RCC_OscInitStruct.PLL.PLLN = 168;
 137:Src/main.c    ****   RCC_OscInitStruct.PLL.PLLP = RCC_PLLP_DIV2;
 138:Src/main.c    ****   RCC_OscInitStruct.PLL.PLLQ = 4;
 139:Src/main.c    ****   if (HAL_RCC_OscConfig(&RCC_OscInitStruct) != HAL_OK)
 140:Src/main.c    ****   {
 141:Src/main.c    ****     _Error_Handler(__FILE__, __LINE__);
 142:Src/main.c    ****   }
 143:Src/main.c    **** 
 144:Src/main.c    ****     /**Initializes the CPU, AHB and APB busses clocks 
ARM GAS  /var/folders/px/4y3x1gx518s5xz5ng2bfdxsw0000gn/T//ccP1Fplk.s 			page 4


 145:Src/main.c    ****     */
 146:Src/main.c    ****   RCC_ClkInitStruct.ClockType = RCC_CLOCKTYPE_HCLK|RCC_CLOCKTYPE_SYSCLK
 147:Src/main.c    ****                               |RCC_CLOCKTYPE_PCLK1|RCC_CLOCKTYPE_PCLK2;
 148:Src/main.c    ****   RCC_ClkInitStruct.SYSCLKSource = RCC_SYSCLKSOURCE_PLLCLK;
 149:Src/main.c    ****   RCC_ClkInitStruct.AHBCLKDivider = RCC_SYSCLK_DIV1;
 150:Src/main.c    ****   RCC_ClkInitStruct.APB1CLKDivider = RCC_HCLK_DIV2;
 151:Src/main.c    ****   RCC_ClkInitStruct.APB2CLKDivider = RCC_HCLK_DIV1;
 152:Src/main.c    **** 
 153:Src/main.c    ****   if (HAL_RCC_ClockConfig(&RCC_ClkInitStruct, FLASH_LATENCY_2) != HAL_OK)
 154:Src/main.c    ****   {
 155:Src/main.c    ****     _Error_Handler(__FILE__, __LINE__);
 156:Src/main.c    ****   }
 157:Src/main.c    **** 
 158:Src/main.c    ****     /**Configure the Systick interrupt time 
 159:Src/main.c    ****     */
 160:Src/main.c    ****   HAL_SYSTICK_Config(HAL_RCC_GetHCLKFreq()/1000);
 161:Src/main.c    **** 
 162:Src/main.c    ****     /**Configure the Systick 
 163:Src/main.c    ****     */
 164:Src/main.c    ****   HAL_SYSTICK_CLKSourceConfig(SYSTICK_CLKSOURCE_HCLK);
 165:Src/main.c    **** 
 166:Src/main.c    ****   /* SysTick_IRQn interrupt configuration */
 167:Src/main.c    ****   HAL_NVIC_SetPriority(SysTick_IRQn, 0, 0);
 168:Src/main.c    **** }
 169:Src/main.c    **** 
 170:Src/main.c    **** /** NVIC Configuration
 171:Src/main.c    **** */
 172:Src/main.c    **** static void MX_NVIC_Init(void)
 173:Src/main.c    **** {
 174:Src/main.c    ****   /* EXTI15_10_IRQn interrupt configuration */
 175:Src/main.c    ****   HAL_NVIC_SetPriority(EXTI15_10_IRQn, 0, 0);
 176:Src/main.c    ****   HAL_NVIC_EnableIRQ(EXTI15_10_IRQn);
 177:Src/main.c    **** }
 178:Src/main.c    **** 
 179:Src/main.c    **** /** Configure pins as 
 180:Src/main.c    ****         * Analog 
 181:Src/main.c    ****         * Input 
 182:Src/main.c    ****         * Output
 183:Src/main.c    ****         * EVENT_OUT
 184:Src/main.c    ****         * EXTI
 185:Src/main.c    **** */
 186:Src/main.c    **** static void MX_GPIO_Init(void)
 187:Src/main.c    **** {
  29              		.loc 1 187 0
  30              		.cfi_startproc
  31              		@ args = 0, pretend = 0, frame = 32
  32              		@ frame_needed = 0, uses_anonymous_args = 0
  33 0000 70B5     		push	{r4, r5, r6, lr}
  34              	.LCFI0:
  35              		.cfi_def_cfa_offset 16
  36              		.cfi_offset 4, -16
  37              		.cfi_offset 5, -12
  38              		.cfi_offset 6, -8
  39              		.cfi_offset 14, -4
  40 0002 88B0     		sub	sp, sp, #32
  41              	.LCFI1:
  42              		.cfi_def_cfa_offset 48
ARM GAS  /var/folders/px/4y3x1gx518s5xz5ng2bfdxsw0000gn/T//ccP1Fplk.s 			page 5


  43              	.LBB2:
 188:Src/main.c    **** 
 189:Src/main.c    ****   GPIO_InitTypeDef GPIO_InitStruct;
 190:Src/main.c    **** 
 191:Src/main.c    ****   /* GPIO Ports Clock Enable */
 192:Src/main.c    ****   __HAL_RCC_GPIOC_CLK_ENABLE();
  44              		.loc 1 192 0
  45 0004 0024     		movs	r4, #0
  46 0006 0094     		str	r4, [sp]
  47 0008 1C4B     		ldr	r3, .L3
  48 000a 1A6B     		ldr	r2, [r3, #48]
  49 000c 42F00402 		orr	r2, r2, #4
  50 0010 1A63     		str	r2, [r3, #48]
  51 0012 1A6B     		ldr	r2, [r3, #48]
  52 0014 02F00402 		and	r2, r2, #4
  53 0018 0092     		str	r2, [sp]
  54 001a 009A     		ldr	r2, [sp]
  55              	.LBE2:
  56              	.LBB3:
 193:Src/main.c    ****   __HAL_RCC_GPIOH_CLK_ENABLE();
  57              		.loc 1 193 0
  58 001c 0194     		str	r4, [sp, #4]
  59 001e 1A6B     		ldr	r2, [r3, #48]
  60 0020 42F08002 		orr	r2, r2, #128
  61 0024 1A63     		str	r2, [r3, #48]
  62 0026 1A6B     		ldr	r2, [r3, #48]
  63 0028 02F08002 		and	r2, r2, #128
  64 002c 0192     		str	r2, [sp, #4]
  65 002e 019A     		ldr	r2, [sp, #4]
  66              	.LBE3:
  67              	.LBB4:
 194:Src/main.c    ****   __HAL_RCC_GPIOA_CLK_ENABLE();
  68              		.loc 1 194 0
  69 0030 0294     		str	r4, [sp, #8]
  70 0032 1A6B     		ldr	r2, [r3, #48]
  71 0034 42F00102 		orr	r2, r2, #1
  72 0038 1A63     		str	r2, [r3, #48]
  73 003a 1B6B     		ldr	r3, [r3, #48]
  74 003c 03F00103 		and	r3, r3, #1
  75 0040 0293     		str	r3, [sp, #8]
  76 0042 029B     		ldr	r3, [sp, #8]
  77              	.LBE4:
 195:Src/main.c    **** 
 196:Src/main.c    ****   /*Configure GPIO pin Output Level */
 197:Src/main.c    ****   HAL_GPIO_WritePin(LD2_GPIO_Port, LD2_Pin, GPIO_PIN_RESET);
  78              		.loc 1 197 0
  79 0044 0E4D     		ldr	r5, .L3+4
  80 0046 2246     		mov	r2, r4
  81 0048 2021     		movs	r1, #32
  82 004a 2846     		mov	r0, r5
  83 004c FFF7FEFF 		bl	HAL_GPIO_WritePin
  84              	.LVL0:
 198:Src/main.c    **** 
 199:Src/main.c    ****   /*Configure GPIO pin : B2_Pin */
 200:Src/main.c    ****   GPIO_InitStruct.Pin = B2_Pin;
  85              		.loc 1 200 0
  86 0050 4FF40053 		mov	r3, #8192
ARM GAS  /var/folders/px/4y3x1gx518s5xz5ng2bfdxsw0000gn/T//ccP1Fplk.s 			page 6


  87 0054 0393     		str	r3, [sp, #12]
 201:Src/main.c    ****   GPIO_InitStruct.Mode = GPIO_MODE_IT_FALLING;
  88              		.loc 1 201 0
  89 0056 0B4B     		ldr	r3, .L3+8
  90 0058 0493     		str	r3, [sp, #16]
 202:Src/main.c    ****   GPIO_InitStruct.Pull = GPIO_PULLUP;
  91              		.loc 1 202 0
  92 005a 0126     		movs	r6, #1
  93 005c 0596     		str	r6, [sp, #20]
 203:Src/main.c    ****   HAL_GPIO_Init(B2_GPIO_Port, &GPIO_InitStruct);
  94              		.loc 1 203 0
  95 005e 03A9     		add	r1, sp, #12
  96 0060 0948     		ldr	r0, .L3+12
  97 0062 FFF7FEFF 		bl	HAL_GPIO_Init
  98              	.LVL1:
 204:Src/main.c    **** 
 205:Src/main.c    ****   /*Configure GPIO pin : LD2_Pin */
 206:Src/main.c    ****   GPIO_InitStruct.Pin = LD2_Pin;
  99              		.loc 1 206 0
 100 0066 2023     		movs	r3, #32
 101 0068 0393     		str	r3, [sp, #12]
 207:Src/main.c    ****   GPIO_InitStruct.Mode = GPIO_MODE_OUTPUT_PP;
 102              		.loc 1 207 0
 103 006a 0496     		str	r6, [sp, #16]
 208:Src/main.c    ****   GPIO_InitStruct.Pull = GPIO_NOPULL;
 104              		.loc 1 208 0
 105 006c 0594     		str	r4, [sp, #20]
 209:Src/main.c    ****   GPIO_InitStruct.Speed = GPIO_SPEED_FREQ_LOW;
 106              		.loc 1 209 0
 107 006e 0694     		str	r4, [sp, #24]
 210:Src/main.c    ****   HAL_GPIO_Init(LD2_GPIO_Port, &GPIO_InitStruct);
 108              		.loc 1 210 0
 109 0070 03A9     		add	r1, sp, #12
 110 0072 2846     		mov	r0, r5
 111 0074 FFF7FEFF 		bl	HAL_GPIO_Init
 112              	.LVL2:
 211:Src/main.c    **** 
 212:Src/main.c    **** }
 113              		.loc 1 212 0
 114 0078 08B0     		add	sp, sp, #32
 115              	.LCFI2:
 116              		.cfi_def_cfa_offset 16
 117              		@ sp needed
 118 007a 70BD     		pop	{r4, r5, r6, pc}
 119              	.L4:
 120              		.align	2
 121              	.L3:
 122 007c 00380240 		.word	1073887232
 123 0080 00000240 		.word	1073872896
 124 0084 00002110 		.word	270598144
 125 0088 00080240 		.word	1073874944
 126              		.cfi_endproc
 127              	.LFE127:
 129              		.section	.text.MX_NVIC_Init,"ax",%progbits
 130              		.align	2
 131              		.thumb
 132              		.thumb_func
ARM GAS  /var/folders/px/4y3x1gx518s5xz5ng2bfdxsw0000gn/T//ccP1Fplk.s 			page 7


 134              	MX_NVIC_Init:
 135              	.LFB126:
 173:Src/main.c    ****   /* EXTI15_10_IRQn interrupt configuration */
 136              		.loc 1 173 0
 137              		.cfi_startproc
 138              		@ args = 0, pretend = 0, frame = 0
 139              		@ frame_needed = 0, uses_anonymous_args = 0
 140 0000 08B5     		push	{r3, lr}
 141              	.LCFI3:
 142              		.cfi_def_cfa_offset 8
 143              		.cfi_offset 3, -8
 144              		.cfi_offset 14, -4
 175:Src/main.c    ****   HAL_NVIC_EnableIRQ(EXTI15_10_IRQn);
 145              		.loc 1 175 0
 146 0002 0022     		movs	r2, #0
 147 0004 1146     		mov	r1, r2
 148 0006 2820     		movs	r0, #40
 149 0008 FFF7FEFF 		bl	HAL_NVIC_SetPriority
 150              	.LVL3:
 176:Src/main.c    **** }
 151              		.loc 1 176 0
 152 000c 2820     		movs	r0, #40
 153 000e FFF7FEFF 		bl	HAL_NVIC_EnableIRQ
 154              	.LVL4:
 155 0012 08BD     		pop	{r3, pc}
 156              		.cfi_endproc
 157              	.LFE126:
 159              		.section	.text.HAL_GPIO_EXTI_Callback,"ax",%progbits
 160              		.align	2
 161              		.global	HAL_GPIO_EXTI_Callback
 162              		.thumb
 163              		.thumb_func
 165              	HAL_GPIO_EXTI_Callback:
 166              	.LFB128:
 213:Src/main.c    **** 
 214:Src/main.c    **** /* USER CODE BEGIN 4 */
 215:Src/main.c    **** void HAL_GPIO_EXTI_Callback(uint16_t GPIO_Pin)
 216:Src/main.c    **** {
 167              		.loc 1 216 0
 168              		.cfi_startproc
 169              		@ args = 0, pretend = 0, frame = 0
 170              		@ frame_needed = 0, uses_anonymous_args = 0
 171              	.LVL5:
 172 0000 08B5     		push	{r3, lr}
 173              	.LCFI4:
 174              		.cfi_def_cfa_offset 8
 175              		.cfi_offset 3, -8
 176              		.cfi_offset 14, -4
 217:Src/main.c    ****   HAL_GPIO_TogglePin(LD2_GPIO_Port, LD2_Pin);
 177              		.loc 1 217 0
 178 0002 2021     		movs	r1, #32
 179 0004 0148     		ldr	r0, .L9
 180              	.LVL6:
 181 0006 FFF7FEFF 		bl	HAL_GPIO_TogglePin
 182              	.LVL7:
 183 000a 08BD     		pop	{r3, pc}
 184              	.L10:
ARM GAS  /var/folders/px/4y3x1gx518s5xz5ng2bfdxsw0000gn/T//ccP1Fplk.s 			page 8


 185              		.align	2
 186              	.L9:
 187 000c 00000240 		.word	1073872896
 188              		.cfi_endproc
 189              	.LFE128:
 191              		.section	.text._Error_Handler,"ax",%progbits
 192              		.align	2
 193              		.global	_Error_Handler
 194              		.thumb
 195              		.thumb_func
 197              	_Error_Handler:
 198              	.LFB129:
 218:Src/main.c    ****   
 219:Src/main.c    **** }
 220:Src/main.c    **** /* USER CODE END 4 */
 221:Src/main.c    **** 
 222:Src/main.c    **** /**
 223:Src/main.c    ****   * @brief  This function is executed in case of error occurrence.
 224:Src/main.c    ****   * @param  None
 225:Src/main.c    ****   * @retval None
 226:Src/main.c    ****   */
 227:Src/main.c    **** void _Error_Handler(char * file, int line)
 228:Src/main.c    **** {
 199              		.loc 1 228 0
 200              		.cfi_startproc
 201              		@ Volatile: function does not return.
 202              		@ args = 0, pretend = 0, frame = 0
 203              		@ frame_needed = 0, uses_anonymous_args = 0
 204              		@ link register save eliminated.
 205              	.LVL8:
 206              	.L12:
 207 0000 FEE7     		b	.L12
 208              		.cfi_endproc
 209              	.LFE129:
 211 0002 00BF     		.section	.text.SystemClock_Config,"ax",%progbits
 212              		.align	2
 213              		.global	SystemClock_Config
 214              		.thumb
 215              		.thumb_func
 217              	SystemClock_Config:
 218              	.LFB125:
 118:Src/main.c    **** 
 219              		.loc 1 118 0
 220              		.cfi_startproc
 221              		@ args = 0, pretend = 0, frame = 80
 222              		@ frame_needed = 0, uses_anonymous_args = 0
 118:Src/main.c    **** 
 223              		.loc 1 118 0
 224 0000 00B5     		push	{lr}
 225              	.LCFI5:
 226              		.cfi_def_cfa_offset 4
 227              		.cfi_offset 14, -4
 228 0002 95B0     		sub	sp, sp, #84
 229              	.LCFI6:
 230              		.cfi_def_cfa_offset 88
 231              	.LBB5:
 125:Src/main.c    **** 
ARM GAS  /var/folders/px/4y3x1gx518s5xz5ng2bfdxsw0000gn/T//ccP1Fplk.s 			page 9


 232              		.loc 1 125 0
 233 0004 0021     		movs	r1, #0
 234 0006 0191     		str	r1, [sp, #4]
 235 0008 2A4B     		ldr	r3, .L17
 236 000a 1A6C     		ldr	r2, [r3, #64]
 237 000c 42F08052 		orr	r2, r2, #268435456
 238 0010 1A64     		str	r2, [r3, #64]
 239 0012 1B6C     		ldr	r3, [r3, #64]
 240 0014 03F08053 		and	r3, r3, #268435456
 241 0018 0193     		str	r3, [sp, #4]
 242 001a 019B     		ldr	r3, [sp, #4]
 243              	.LBE5:
 244              	.LBB6:
 127:Src/main.c    **** 
 245              		.loc 1 127 0
 246 001c 0291     		str	r1, [sp, #8]
 247 001e 264A     		ldr	r2, .L17+4
 248 0020 1368     		ldr	r3, [r2]
 249 0022 23F44043 		bic	r3, r3, #49152
 250 0026 43F40043 		orr	r3, r3, #32768
 251 002a 1360     		str	r3, [r2]
 252 002c 1368     		ldr	r3, [r2]
 253 002e 03F44043 		and	r3, r3, #49152
 254 0032 0293     		str	r3, [sp, #8]
 255 0034 029B     		ldr	r3, [sp, #8]
 256              	.LBE6:
 131:Src/main.c    ****   RCC_OscInitStruct.HSEState = RCC_HSE_ON;
 257              		.loc 1 131 0
 258 0036 0123     		movs	r3, #1
 259 0038 0893     		str	r3, [sp, #32]
 132:Src/main.c    ****   RCC_OscInitStruct.PLL.PLLState = RCC_PLL_ON;
 260              		.loc 1 132 0
 261 003a 4FF48033 		mov	r3, #65536
 262 003e 0993     		str	r3, [sp, #36]
 133:Src/main.c    ****   RCC_OscInitStruct.PLL.PLLSource = RCC_PLLSOURCE_HSE;
 263              		.loc 1 133 0
 264 0040 0223     		movs	r3, #2
 265 0042 0E93     		str	r3, [sp, #56]
 134:Src/main.c    ****   RCC_OscInitStruct.PLL.PLLM = 8;
 266              		.loc 1 134 0
 267 0044 4FF48002 		mov	r2, #4194304
 268 0048 0F92     		str	r2, [sp, #60]
 135:Src/main.c    ****   RCC_OscInitStruct.PLL.PLLN = 168;
 269              		.loc 1 135 0
 270 004a 0822     		movs	r2, #8
 271 004c 1092     		str	r2, [sp, #64]
 136:Src/main.c    ****   RCC_OscInitStruct.PLL.PLLP = RCC_PLLP_DIV2;
 272              		.loc 1 136 0
 273 004e A822     		movs	r2, #168
 274 0050 1192     		str	r2, [sp, #68]
 137:Src/main.c    ****   RCC_OscInitStruct.PLL.PLLQ = 4;
 275              		.loc 1 137 0
 276 0052 1293     		str	r3, [sp, #72]
 138:Src/main.c    ****   if (HAL_RCC_OscConfig(&RCC_OscInitStruct) != HAL_OK)
 277              		.loc 1 138 0
 278 0054 0423     		movs	r3, #4
 279 0056 1393     		str	r3, [sp, #76]
ARM GAS  /var/folders/px/4y3x1gx518s5xz5ng2bfdxsw0000gn/T//ccP1Fplk.s 			page 10


 139:Src/main.c    ****   {
 280              		.loc 1 139 0
 281 0058 08A8     		add	r0, sp, #32
 282 005a FFF7FEFF 		bl	HAL_RCC_OscConfig
 283              	.LVL9:
 284 005e 18B1     		cbz	r0, .L14
 141:Src/main.c    ****   }
 285              		.loc 1 141 0
 286 0060 8D21     		movs	r1, #141
 287 0062 1648     		ldr	r0, .L17+8
 288 0064 FFF7FEFF 		bl	_Error_Handler
 289              	.LVL10:
 290              	.L14:
 146:Src/main.c    ****                               |RCC_CLOCKTYPE_PCLK1|RCC_CLOCKTYPE_PCLK2;
 291              		.loc 1 146 0
 292 0068 0F23     		movs	r3, #15
 293 006a 0393     		str	r3, [sp, #12]
 148:Src/main.c    ****   RCC_ClkInitStruct.AHBCLKDivider = RCC_SYSCLK_DIV1;
 294              		.loc 1 148 0
 295 006c 0221     		movs	r1, #2
 296 006e 0491     		str	r1, [sp, #16]
 149:Src/main.c    ****   RCC_ClkInitStruct.APB1CLKDivider = RCC_HCLK_DIV2;
 297              		.loc 1 149 0
 298 0070 0023     		movs	r3, #0
 299 0072 0593     		str	r3, [sp, #20]
 150:Src/main.c    ****   RCC_ClkInitStruct.APB2CLKDivider = RCC_HCLK_DIV1;
 300              		.loc 1 150 0
 301 0074 4FF48052 		mov	r2, #4096
 302 0078 0692     		str	r2, [sp, #24]
 151:Src/main.c    **** 
 303              		.loc 1 151 0
 304 007a 0793     		str	r3, [sp, #28]
 153:Src/main.c    ****   {
 305              		.loc 1 153 0
 306 007c 03A8     		add	r0, sp, #12
 307 007e FFF7FEFF 		bl	HAL_RCC_ClockConfig
 308              	.LVL11:
 309 0082 18B1     		cbz	r0, .L15
 155:Src/main.c    ****   }
 310              		.loc 1 155 0
 311 0084 9B21     		movs	r1, #155
 312 0086 0D48     		ldr	r0, .L17+8
 313 0088 FFF7FEFF 		bl	_Error_Handler
 314              	.LVL12:
 315              	.L15:
 160:Src/main.c    **** 
 316              		.loc 1 160 0
 317 008c FFF7FEFF 		bl	HAL_RCC_GetHCLKFreq
 318              	.LVL13:
 319 0090 0B4B     		ldr	r3, .L17+12
 320 0092 A3FB0030 		umull	r3, r0, r3, r0
 321 0096 8009     		lsrs	r0, r0, #6
 322 0098 FFF7FEFF 		bl	HAL_SYSTICK_Config
 323              	.LVL14:
 164:Src/main.c    **** 
 324              		.loc 1 164 0
 325 009c 0420     		movs	r0, #4
ARM GAS  /var/folders/px/4y3x1gx518s5xz5ng2bfdxsw0000gn/T//ccP1Fplk.s 			page 11


 326 009e FFF7FEFF 		bl	HAL_SYSTICK_CLKSourceConfig
 327              	.LVL15:
 167:Src/main.c    **** }
 328              		.loc 1 167 0
 329 00a2 0022     		movs	r2, #0
 330 00a4 1146     		mov	r1, r2
 331 00a6 4FF0FF30 		mov	r0, #-1
 332 00aa FFF7FEFF 		bl	HAL_NVIC_SetPriority
 333              	.LVL16:
 168:Src/main.c    **** 
 334              		.loc 1 168 0
 335 00ae 15B0     		add	sp, sp, #84
 336              	.LCFI7:
 337              		.cfi_def_cfa_offset 4
 338              		@ sp needed
 339 00b0 5DF804FB 		ldr	pc, [sp], #4
 340              	.L18:
 341              		.align	2
 342              	.L17:
 343 00b4 00380240 		.word	1073887232
 344 00b8 00700040 		.word	1073770496
 345 00bc 00000000 		.word	.LC0
 346 00c0 D34D6210 		.word	274877907
 347              		.cfi_endproc
 348              	.LFE125:
 350              		.section	.text.main,"ax",%progbits
 351              		.align	2
 352              		.global	main
 353              		.thumb
 354              		.thumb_func
 356              	main:
 357              	.LFB124:
  68:Src/main.c    **** 
 358              		.loc 1 68 0
 359              		.cfi_startproc
 360              		@ Volatile: function does not return.
 361              		@ args = 0, pretend = 0, frame = 0
 362              		@ frame_needed = 0, uses_anonymous_args = 0
 363 0000 08B5     		push	{r3, lr}
 364              	.LCFI8:
 365              		.cfi_def_cfa_offset 8
 366              		.cfi_offset 3, -8
 367              		.cfi_offset 14, -4
  77:Src/main.c    **** 
 368              		.loc 1 77 0
 369 0002 FFF7FEFF 		bl	HAL_Init
 370              	.LVL17:
  84:Src/main.c    **** 
 371              		.loc 1 84 0
 372 0006 FFF7FEFF 		bl	SystemClock_Config
 373              	.LVL18:
  91:Src/main.c    **** 
 374              		.loc 1 91 0
 375 000a FFF7FEFF 		bl	MX_GPIO_Init
 376              	.LVL19:
  94:Src/main.c    **** 
 377              		.loc 1 94 0
ARM GAS  /var/folders/px/4y3x1gx518s5xz5ng2bfdxsw0000gn/T//ccP1Fplk.s 			page 12


 378 000e FFF7FEFF 		bl	MX_NVIC_Init
 379              	.LVL20:
 380              	.L20:
 105:Src/main.c    ****     // HAL_GPIO_TogglePin(LD2_GPIO_Port, LD2_Pin);
 381              		.loc 1 105 0 discriminator 1
 382 0012 6420     		movs	r0, #100
 383 0014 FFF7FEFF 		bl	HAL_Delay
 384              	.LVL21:
 385 0018 FBE7     		b	.L20
 386              		.cfi_endproc
 387              	.LFE124:
 389 001a 00BF     		.section	.rodata.str1.4,"aMS",%progbits,1
 390              		.align	2
 391              	.LC0:
 392 0000 5372632F 		.ascii	"Src/main.c\000"
 392      6D61696E 
 392      2E6300
 393              		.text
 394              	.Letext0:
 395              		.file 2 "/Users/ds/arm-none-eabi-gcc/arm-none-eabi/include/machine/_default_types.h"
 396              		.file 3 "/Users/ds/arm-none-eabi-gcc/arm-none-eabi/include/sys/_stdint.h"
 397              		.file 4 "Drivers/CMSIS/Device/ST/STM32F4xx/Include/stm32f401xe.h"
 398              		.file 5 "Drivers/STM32F4xx_HAL_Driver/Inc/stm32f4xx_hal_def.h"
 399              		.file 6 "Drivers/STM32F4xx_HAL_Driver/Inc/stm32f4xx_hal_rcc_ex.h"
 400              		.file 7 "Drivers/STM32F4xx_HAL_Driver/Inc/stm32f4xx_hal_rcc.h"
 401              		.file 8 "Drivers/STM32F4xx_HAL_Driver/Inc/stm32f4xx_hal_gpio.h"
 402              		.file 9 "Drivers/STM32F4xx_HAL_Driver/Inc/stm32f4xx_hal_cortex.h"
 403              		.file 10 "Drivers/STM32F4xx_HAL_Driver/Inc/stm32f4xx_hal.h"
 404              		.file 11 "Drivers/CMSIS/Include/core_cm4.h"
ARM GAS  /var/folders/px/4y3x1gx518s5xz5ng2bfdxsw0000gn/T//ccP1Fplk.s 			page 13

